	.text
	.globl	msleep
	.type	msleep, @function
msleep:
.LFB0:
	.cfi_startproc
	pushq	%rbp
	.cfi_def_cfa_offset 16
	.cfi_offset 6, -16
	movq	%rsp, %rbp
	.cfi_def_cfa_register 6
	subq	$16, %rsp
	movl	%edi, -4(%rbp)
	movl	-4(%rbp), %eax
	imull	$1000, %eax, %eax
	movl	%eax, %edi
	call	usleep@PLT
	leave
	.cfi_def_cfa 7, 8
	ret
	.cfi_endproc
.LFE0:
	.size	msleep, .-msleep
	.section	.rodata
.LC0:
	.string	"\033[1;1H\033[2J"
	.text
	.globl	main
	.type	main, @function
main:
.LFB1:
	.cfi_startproc
	pushq	%rbp
	.cfi_def_cfa_offset 16
	.cfi_offset 6, -16
	movq	%rsp, %rbp
	.cfi_def_cfa_register 6
	subq	$2528, %rsp
	leaq	.LC0(%rip), %rdi
	movl	$0, %eax
	call	printf@PLT
	leaq	-2528(%rbp), %rdx
	movl	$0, %eax
	movl	$312, %ecx
	movq	%rdx, %rdi
	rep stosq
	movq	%rdi, %rdx
	movl	%eax, (%rdx)
	addq	$4, %rdx
	movb	$32, -2528(%rbp)
	movb	$32, -2527(%rbp)
	movb	$95, -2526(%rbp)
	movb	$95, -2525(%rbp)
	movb	$32, -2524(%rbp)
	movb	$32, -2523(%rbp)
	movb	$95, -2522(%rbp)
	movb	$95, -2521(%rbp)
	movb	$32, -2520(%rbp)
	movb	$95, -2519(%rbp)
	movb	$95, -2518(%rbp)
	movb	$95, -2517(%rbp)
	movb	$32, -2516(%rbp)
	movb	$95, -2515(%rbp)
	movb	$32, -2514(%rbp)
	movb	$32, -2513(%rbp)
	movb	$32, -2512(%rbp)
	movb	$95, -2511(%rbp)
	movb	$32, -2510(%rbp)
	movb	$95, -2509(%rbp)
	movb	$95, -2508(%rbp)
	movb	$95, -2507(%rbp)
	movb	$95, -2506(%rbp)
	movb	$95, -2505(%rbp)
	movb	$95, -2504(%rbp)
	movb	$32, -2503(%rbp)
	movb	$32, -2502(%rbp)
	movb	$95, -2501(%rbp)
	movb	$95, -2500(%rbp)
	movb	$32, -2499(%rbp)
	movb	$32, -2498(%rbp)
	movb	$32, -2497(%rbp)
	movb	$32, -2496(%rbp)
	movb	$32, -2495(%rbp)
	movb	$32, -2494(%rbp)
	movb	$32, -2493(%rbp)
	movb	$32, -2492(%rbp)
	movb	$32, -2491(%rbp)
	movb	$32, -2490(%rbp)
	movb	$95, -2489(%rbp)
	movb	$32, -2488(%rbp)
	movb	$32, -2487(%rbp)
	movb	$32, -2486(%rbp)
	movb	$95, -2485(%rbp)
	movb	$32, -2484(%rbp)
	movb	$32, -2483(%rbp)
	movb	$32, -2482(%rbp)
	movb	$32, -2481(%rbp)
	movb	$95, -2480(%rbp)
	movb	$32, -2479(%rbp)
	movb	$32, -2478(%rbp)
	movb	$32, -2477(%rbp)
	movb	$32, -2476(%rbp)
	movb	$95, -2475(%rbp)
	movb	$95, -2474(%rbp)
	movb	$95, -2473(%rbp)
	movb	$95, -2472(%rbp)
	movb	$32, -2471(%rbp)
	movb	$32, -2470(%rbp)
	movb	$95, -2469(%rbp)
	movb	$95, -2468(%rbp)
	movb	$95, -2467(%rbp)
	movb	$95, -2466(%rbp)
	movb	$95, -2465(%rbp)
	movb	$95, -2464(%rbp)
	movb	$32, -2463(%rbp)
	movb	$32, -2462(%rbp)
	movb	$32, -2461(%rbp)
	movb	$95, -2460(%rbp)
	movb	$95, -2459(%rbp)
	movb	$32, -2458(%rbp)
	movb	$32, -2457(%rbp)
	movb	$95, -2456(%rbp)
	movb	$95, -2455(%rbp)
	movb	$95, -2454(%rbp)
	movb	$95, -2453(%rbp)
	movb	$95, -2452(%rbp)
	movb	$32, -2451(%rbp)
	movb	$95, -2450(%rbp)
	movb	$95, -2449(%rbp)
	movb	$95, -2448(%rbp)
	movb	$95, -2447(%rbp)
	movb	$95, -2446(%rbp)
	movb	$32, -2445(%rbp)
	movb	$32, -2444(%rbp)
	movb	$32, -2443(%rbp)
	movb	$32, -2442(%rbp)
	movb	$95, -2441(%rbp)
	movb	$32, -2440(%rbp)
	movb	$32, -2439(%rbp)
	movb	$32, -2438(%rbp)
	movb	$32, -2437(%rbp)
	movb	$95, -2436(%rbp)
	movb	$95, -2435(%rbp)
	movb	$95, -2434(%rbp)
	movb	$95, -2433(%rbp)
	movb	$32, -2432(%rbp)
	movb	$95, -2431(%rbp)
	movb	$32, -2430(%rbp)
	movb	$32, -2429(%rbp)
	movb	$32, -2428(%rbp)
	movb	$95, -2427(%rbp)
	movb	$32, -2426(%rbp)
	movb	$95, -2425(%rbp)
	movb	$95, -2424(%rbp)
	movb	$95, -2423(%rbp)
	movb	$95, -2422(%rbp)
	movb	$95, -2421(%rbp)
	movb	$32, -2420(%rbp)
	movb	$95, -2419(%rbp)
	movb	$95, -2418(%rbp)
	movb	$95, -2417(%rbp)
	movb	$95, -2416(%rbp)
	movb	$32, -2415(%rbp)
	movb	$32, -2414(%rbp)
	movb	$95, -2413(%rbp)
	movb	$95, -2412(%rbp)
	movb	$95, -2411(%rbp)
	movb	$95, -2410(%rbp)
	movb	$32, -2409(%rbp)
	movb	$32, -2408(%rbp)
	movb	$32, -2407(%rbp)
	movb	$32, -2406(%rbp)
	movb	$95, -2405(%rbp)
	movb	$95, -2404(%rbp)
	movb	$95, -2403(%rbp)
	movb	$95, -2402(%rbp)
	movb	$32, -2401(%rbp)
	movb	$32, -2400(%rbp)
	movb	$32, -2399(%rbp)
	movb	$32, -2398(%rbp)
	movb	$95, -2397(%rbp)
	movb	$32, -2396(%rbp)
	movb	$95, -2395(%rbp)
	movb	$95, -2394(%rbp)
	movb	$32, -2393(%rbp)
	movb	$32, -2392(%rbp)
	movb	$32, -2391(%rbp)
	movb	$95, -2390(%rbp)
	movb	$95, -2389(%rbp)
	movb	$32, -2028(%rbp)
	movb	$124, -2027(%rbp)
	movb	$32, -2026(%rbp)
	movb	$32, -2025(%rbp)
	movb	$92, -2024(%rbp)
	movb	$47, -2023(%rbp)
	movb	$32, -2022(%rbp)
	movb	$32, -2021(%rbp)
	movb	$124, -2020(%rbp)
	movb	$95, -2019(%rbp)
	movb	$32, -2018(%rbp)
	movb	$95, -2017(%rbp)
	movb	$124, -2016(%rbp)
	movb	$32, -2015(%rbp)
	movb	$92, -2014(%rbp)
	movb	$32, -2013(%rbp)
	movb	$124, -2012(%rbp)
	movb	$32, -2011(%rbp)
	movb	$124, -2010(%rbp)
	movb	$32, -2009(%rbp)
	movb	$32, -2008(%rbp)
	movb	$95, -2007(%rbp)
	movb	$32, -2006(%rbp)
	movb	$92, -2005(%rbp)
	movb	$32, -2004(%rbp)
	movb	$92, -2003(%rbp)
	movb	$47, -2002(%rbp)
	movb	$32, -2001(%rbp)
	movb	$47, -2000(%rbp)
	movb	$32, -1999(%rbp)
	movb	$32, -1998(%rbp)
	movb	$32, -1997(%rbp)
	movb	$32, -1996(%rbp)
	movb	$32, -1995(%rbp)
	movb	$32, -1994(%rbp)
	movb	$32, -1993(%rbp)
	movb	$32, -1992(%rbp)
	movb	$32, -1991(%rbp)
	movb	$124, -1990(%rbp)
	movb	$32, -1989(%rbp)
	movb	$124, -1988(%rbp)
	movb	$32, -1987(%rbp)
	movb	$124, -1986(%rbp)
	movb	$32, -1985(%rbp)
	movb	$124, -1984(%rbp)
	movb	$32, -1983(%rbp)
	movb	$32, -1982(%rbp)
	movb	$47, -1981(%rbp)
	movb	$32, -1980(%rbp)
	movb	$92, -1979(%rbp)
	movb	$32, -1978(%rbp)
	movb	$32, -1977(%rbp)
	movb	$124, -1976(%rbp)
	movb	$32, -1975(%rbp)
	movb	$32, -1974(%rbp)
	movb	$95, -1973(%rbp)
	movb	$32, -1972(%rbp)
	movb	$92, -1971(%rbp)
	movb	$124, -1970(%rbp)
	movb	$32, -1969(%rbp)
	movb	$32, -1968(%rbp)
	movb	$95, -1967(%rbp)
	movb	$32, -1966(%rbp)
	movb	$92, -1965(%rbp)
	movb	$32, -1964(%rbp)
	movb	$92, -1963(%rbp)
	movb	$32, -1962(%rbp)
	movb	$47, -1961(%rbp)
	movb	$32, -1960(%rbp)
	movb	$47, -1959(%rbp)
	movb	$32, -1958(%rbp)
	movb	$124, -1957(%rbp)
	movb	$95, -1956(%rbp)
	movb	$32, -1955(%rbp)
	movb	$32, -1954(%rbp)
	movb	$32, -1953(%rbp)
	movb	$95, -1952(%rbp)
	movb	$124, -1951(%rbp)
	movb	$32, -1950(%rbp)
	movb	$95, -1949(%rbp)
	movb	$95, -1948(%rbp)
	movb	$95, -1947(%rbp)
	movb	$95, -1946(%rbp)
	movb	$124, -1945(%rbp)
	movb	$32, -1944(%rbp)
	movb	$32, -1943(%rbp)
	movb	$47, -1942(%rbp)
	movb	$32, -1941(%rbp)
	movb	$92, -1940(%rbp)
	movb	$32, -1939(%rbp)
	movb	$32, -1938(%rbp)
	movb	$47, -1937(%rbp)
	movb	$32, -1936(%rbp)
	movb	$95, -1935(%rbp)
	movb	$95, -1934(%rbp)
	movb	$95, -1933(%rbp)
	movb	$124, -1932(%rbp)
	movb	$32, -1931(%rbp)
	movb	$124, -1930(%rbp)
	movb	$32, -1929(%rbp)
	movb	$124, -1928(%rbp)
	movb	$32, -1927(%rbp)
	movb	$124, -1926(%rbp)
	movb	$32, -1925(%rbp)
	movb	$95, -1924(%rbp)
	movb	$95, -1923(%rbp)
	movb	$95, -1922(%rbp)
	movb	$95, -1921(%rbp)
	movb	$124, -1920(%rbp)
	movb	$32, -1919(%rbp)
	movb	$32, -1918(%rbp)
	movb	$95, -1917(%rbp)
	movb	$32, -1916(%rbp)
	movb	$92, -1915(%rbp)
	movb	$47, -1914(%rbp)
	movb	$32, -1913(%rbp)
	movb	$95, -1912(%rbp)
	movb	$95, -1911(%rbp)
	movb	$95, -1910(%rbp)
	movb	$124, -1909(%rbp)
	movb	$32, -1908(%rbp)
	movb	$32, -1907(%rbp)
	movb	$124, -1906(%rbp)
	movb	$32, -1905(%rbp)
	movb	$32, -1904(%rbp)
	movb	$95, -1903(%rbp)
	movb	$32, -1902(%rbp)
	movb	$92, -1901(%rbp)
	movb	$32, -1900(%rbp)
	movb	$32, -1899(%rbp)
	movb	$47, -1898(%rbp)
	movb	$32, -1897(%rbp)
	movb	$92, -1896(%rbp)
	movb	$92, -1895(%rbp)
	movb	$32, -1894(%rbp)
	movb	$92, -1893(%rbp)
	movb	$32, -1892(%rbp)
	movb	$47, -1891(%rbp)
	movb	$32, -1890(%rbp)
	movb	$47, -1889(%rbp)
	movb	$32, -1528(%rbp)
	movb	$124, -1527(%rbp)
	movb	$32, -1526(%rbp)
	movb	$124, -1525(%rbp)
	movb	$92, -1524(%rbp)
	movb	$47, -1523(%rbp)
	movb	$124, -1522(%rbp)
	movb	$32, -1521(%rbp)
	movb	$124, -1520(%rbp)
	movb	$124, -1519(%rbp)
	movb	$32, -1518(%rbp)
	movb	$124, -1517(%rbp)
	movb	$124, -1516(%rbp)
	movb	$32, -1515(%rbp)
	movb	$32, -1514(%rbp)
	movb	$92, -1513(%rbp)
	movb	$124, -1512(%rbp)
	movb	$32, -1511(%rbp)
	movb	$124, -1510(%rbp)
	movb	$32, -1509(%rbp)
	movb	$124, -1508(%rbp)
	movb	$32, -1507(%rbp)
	movb	$124, -1506(%rbp)
	movb	$32, -1505(%rbp)
	movb	$92, -1504(%rbp)
	movb	$32, -1503(%rbp)
	movb	$32, -1502(%rbp)
	movb	$47, -1501(%rbp)
	movb	$32, -1500(%rbp)
	movb	$32, -1499(%rbp)
	movb	$32, -1498(%rbp)
	movb	$95, -1497(%rbp)
	movb	$95, -1496(%rbp)
	movb	$95, -1495(%rbp)
	movb	$95, -1494(%rbp)
	movb	$95, -1493(%rbp)
	movb	$32, -1492(%rbp)
	movb	$32, -1491(%rbp)
	movb	$124, -1490(%rbp)
	movb	$32, -1489(%rbp)
	movb	$124, -1488(%rbp)
	movb	$95, -1487(%rbp)
	movb	$124, -1486(%rbp)
	movb	$32, -1485(%rbp)
	movb	$124, -1484(%rbp)
	movb	$32, -1483(%rbp)
	movb	$47, -1482(%rbp)
	movb	$32, -1481(%rbp)
	movb	$95, -1480(%rbp)
	movb	$32, -1479(%rbp)
	movb	$92, -1478(%rbp)
	movb	$32, -1477(%rbp)
	movb	$124, -1476(%rbp)
	movb	$32, -1475(%rbp)
	movb	$124, -1474(%rbp)
	movb	$95, -1473(%rbp)
	movb	$41, -1472(%rbp)
	movb	$32, -1471(%rbp)
	movb	$124, -1470(%rbp)
	movb	$32, -1469(%rbp)
	movb	$124, -1468(%rbp)
	movb	$95, -1467(%rbp)
	movb	$41, -1466(%rbp)
	movb	$32, -1465(%rbp)
	movb	$92, -1464(%rbp)
	movb	$32, -1463(%rbp)
	movb	$86, -1462(%rbp)
	movb	$32, -1461(%rbp)
	movb	$47, -1460(%rbp)
	movb	$32, -1459(%rbp)
	movb	$32, -1458(%rbp)
	movb	$32, -1457(%rbp)
	movb	$32, -1456(%rbp)
	movb	$124, -1455(%rbp)
	movb	$32, -1454(%rbp)
	movb	$124, -1453(%rbp)
	movb	$32, -1452(%rbp)
	movb	$124, -1451(%rbp)
	movb	$32, -1450(%rbp)
	movb	$32, -1449(%rbp)
	movb	$95, -1448(%rbp)
	movb	$124, -1447(%rbp)
	movb	$32, -1446(%rbp)
	movb	$32, -1445(%rbp)
	movb	$32, -1444(%rbp)
	movb	$47, -1443(%rbp)
	movb	$32, -1442(%rbp)
	movb	$95, -1441(%rbp)
	movb	$32, -1440(%rbp)
	movb	$92, -1439(%rbp)
	movb	$124, -1438(%rbp)
	movb	$32, -1437(%rbp)
	movb	$124, -1436(%rbp)
	movb	$32, -1435(%rbp)
	movb	$32, -1434(%rbp)
	movb	$32, -1433(%rbp)
	movb	$124, -1432(%rbp)
	movb	$32, -1431(%rbp)
	movb	$124, -1430(%rbp)
	movb	$95, -1429(%rbp)
	movb	$124, -1428(%rbp)
	movb	$32, -1427(%rbp)
	movb	$124, -1426(%rbp)
	movb	$32, -1425(%rbp)
	movb	$32, -1424(%rbp)
	movb	$95, -1423(%rbp)
	movb	$124, -1422(%rbp)
	movb	$32, -1421(%rbp)
	movb	$124, -1420(%rbp)
	movb	$32, -1419(%rbp)
	movb	$124, -1418(%rbp)
	movb	$95, -1417(%rbp)
	movb	$41, -1416(%rbp)
	movb	$32, -1415(%rbp)
	movb	$92, -1414(%rbp)
	movb	$95, -1413(%rbp)
	movb	$95, -1412(%rbp)
	movb	$95, -1411(%rbp)
	movb	$32, -1410(%rbp)
	movb	$92, -1409(%rbp)
	movb	$32, -1408(%rbp)
	movb	$32, -1407(%rbp)
	movb	$124, -1406(%rbp)
	movb	$32, -1405(%rbp)
	movb	$124, -1404(%rbp)
	movb	$32, -1403(%rbp)
	movb	$124, -1402(%rbp)
	movb	$32, -1401(%rbp)
	movb	$124, -1400(%rbp)
	movb	$47, -1399(%rbp)
	movb	$32, -1398(%rbp)
	movb	$95, -1397(%rbp)
	movb	$32, -1396(%rbp)
	movb	$92, -1395(%rbp)
	movb	$92, -1394(%rbp)
	movb	$32, -1393(%rbp)
	movb	$86, -1392(%rbp)
	movb	$32, -1391(%rbp)
	movb	$47, -1390(%rbp)
	movb	$32, -1389(%rbp)
	movb	$32, -1028(%rbp)
	movb	$124, -1027(%rbp)
	movb	$32, -1026(%rbp)
	movb	$124, -1025(%rbp)
	movb	$32, -1024(%rbp)
	movb	$32, -1023(%rbp)
	movb	$124, -1022(%rbp)
	movb	$32, -1021(%rbp)
	movb	$124, -1020(%rbp)
	movb	$124, -1019(%rbp)
	movb	$32, -1018(%rbp)
	movb	$124, -1017(%rbp)
	movb	$124, -1016(%rbp)
	movb	$32, -1015(%rbp)
	movb	$124, -1014(%rbp)
	movb	$92, -1013(%rbp)
	movb	$32, -1012(%rbp)
	movb	$32, -1011(%rbp)
	movb	$124, -1010(%rbp)
	movb	$32, -1009(%rbp)
	movb	$124, -1008(%rbp)
	movb	$95, -1007(%rbp)
	movb	$124, -1006(%rbp)
	movb	$32, -1005(%rbp)
	movb	$47, -1004(%rbp)
	movb	$32, -1003(%rbp)
	movb	$32, -1002(%rbp)
	movb	$92, -1001(%rbp)
	movb	$32, -1000(%rbp)
	movb	$32, -999(%rbp)
	movb	$124, -998(%rbp)
	movb	$95, -997(%rbp)
	movb	$95, -996(%rbp)
	movb	$95, -995(%rbp)
	movb	$95, -994(%rbp)
	movb	$95, -993(%rbp)
	movb	$124, -992(%rbp)
	movb	$32, -991(%rbp)
	movb	$124, -990(%rbp)
	movb	$32, -989(%rbp)
	movb	$32, -988(%rbp)
	movb	$95, -987(%rbp)
	movb	$32, -986(%rbp)
	movb	$32, -985(%rbp)
	movb	$124, -984(%rbp)
	movb	$47, -983(%rbp)
	movb	$32, -982(%rbp)
	movb	$95, -981(%rbp)
	movb	$95, -980(%rbp)
	movb	$95, -979(%rbp)
	movb	$32, -978(%rbp)
	movb	$92, -977(%rbp)
	movb	$124, -976(%rbp)
	movb	$32, -975(%rbp)
	movb	$32, -974(%rbp)
	movb	$95, -973(%rbp)
	movb	$95, -972(%rbp)
	movb	$47, -971(%rbp)
	movb	$124, -970(%rbp)
	movb	$32, -969(%rbp)
	movb	$32, -968(%rbp)
	movb	$95, -967(%rbp)
	movb	$95, -966(%rbp)
	movb	$47, -965(%rbp)
	movb	$32, -964(%rbp)
	movb	$124, -963(%rbp)
	movb	$32, -962(%rbp)
	movb	$124, -961(%rbp)
	movb	$32, -960(%rbp)
	movb	$32, -959(%rbp)
	movb	$32, -958(%rbp)
	movb	$32, -957(%rbp)
	movb	$32, -956(%rbp)
	movb	$124, -955(%rbp)
	movb	$32, -954(%rbp)
	movb	$124, -953(%rbp)
	movb	$32, -952(%rbp)
	movb	$124, -951(%rbp)
	movb	$32, -950(%rbp)
	movb	$124, -949(%rbp)
	movb	$95, -948(%rbp)
	movb	$95, -947(%rbp)
	movb	$95, -946(%rbp)
	movb	$32, -945(%rbp)
	movb	$47, -944(%rbp)
	movb	$32, -943(%rbp)
	movb	$95, -942(%rbp)
	movb	$95, -941(%rbp)
	movb	$95, -940(%rbp)
	movb	$32, -939(%rbp)
	movb	$92, -938(%rbp)
	movb	$32, -937(%rbp)
	movb	$124, -936(%rbp)
	movb	$95, -935(%rbp)
	movb	$95, -934(%rbp)
	movb	$95, -933(%rbp)
	movb	$124, -932(%rbp)
	movb	$32, -931(%rbp)
	movb	$32, -930(%rbp)
	movb	$95, -929(%rbp)
	movb	$32, -928(%rbp)
	movb	$32, -927(%rbp)
	movb	$124, -926(%rbp)
	movb	$32, -925(%rbp)
	movb	$124, -924(%rbp)
	movb	$95, -923(%rbp)
	movb	$95, -922(%rbp)
	movb	$95, -921(%rbp)
	movb	$124, -920(%rbp)
	movb	$32, -919(%rbp)
	movb	$32, -918(%rbp)
	movb	$95, -917(%rbp)
	movb	$32, -916(%rbp)
	movb	$60, -915(%rbp)
	movb	$32, -914(%rbp)
	movb	$95, -913(%rbp)
	movb	$95, -912(%rbp)
	movb	$95, -911(%rbp)
	movb	$41, -910(%rbp)
	movb	$32, -909(%rbp)
	movb	$124, -908(%rbp)
	movb	$32, -907(%rbp)
	movb	$124, -906(%rbp)
	movb	$32, -905(%rbp)
	movb	$124, -904(%rbp)
	movb	$95, -903(%rbp)
	movb	$124, -902(%rbp)
	movb	$32, -901(%rbp)
	movb	$47, -900(%rbp)
	movb	$32, -899(%rbp)
	movb	$95, -898(%rbp)
	movb	$95, -897(%rbp)
	movb	$95, -896(%rbp)
	movb	$32, -895(%rbp)
	movb	$92, -894(%rbp)
	movb	$124, -893(%rbp)
	movb	$32, -892(%rbp)
	movb	$124, -891(%rbp)
	movb	$32, -890(%rbp)
	movb	$32, -889(%rbp)
	movb	$32, -528(%rbp)
	movb	$124, -527(%rbp)
	movb	$95, -526(%rbp)
	movb	$124, -525(%rbp)
	movb	$32, -524(%rbp)
	movb	$32, -523(%rbp)
	movb	$124, -522(%rbp)
	movb	$95, -521(%rbp)
	movb	$124, -520(%rbp)
	movb	$95, -519(%rbp)
	movb	$95, -518(%rbp)
	movb	$95, -517(%rbp)
	movb	$124, -516(%rbp)
	movb	$95, -515(%rbp)
	movb	$124, -514(%rbp)
	movb	$32, -513(%rbp)
	movb	$92, -512(%rbp)
	movb	$95, -511(%rbp)
	movb	$124, -510(%rbp)
	movb	$95, -509(%rbp)
	movb	$95, -508(%rbp)
	movb	$95, -507(%rbp)
	movb	$95, -506(%rbp)
	movb	$47, -505(%rbp)
	movb	$95, -504(%rbp)
	movb	$47, -503(%rbp)
	movb	$92, -502(%rbp)
	movb	$95, -501(%rbp)
	movb	$92, -500(%rbp)
	movb	$32, -499(%rbp)
	movb	$32, -498(%rbp)
	movb	$32, -497(%rbp)
	movb	$32, -496(%rbp)
	movb	$32, -495(%rbp)
	movb	$32, -494(%rbp)
	movb	$32, -493(%rbp)
	movb	$32, -492(%rbp)
	movb	$32, -491(%rbp)
	movb	$124, -490(%rbp)
	movb	$95, -489(%rbp)
	movb	$124, -488(%rbp)
	movb	$32, -487(%rbp)
	movb	$124, -486(%rbp)
	movb	$95, -485(%rbp)
	movb	$47, -484(%rbp)
	movb	$95, -483(%rbp)
	movb	$47, -482(%rbp)
	movb	$32, -481(%rbp)
	movb	$32, -480(%rbp)
	movb	$32, -479(%rbp)
	movb	$92, -478(%rbp)
	movb	$95, -477(%rbp)
	movb	$92, -476(%rbp)
	movb	$95, -475(%rbp)
	movb	$124, -474(%rbp)
	movb	$32, -473(%rbp)
	movb	$32, -472(%rbp)
	movb	$32, -471(%rbp)
	movb	$124, -470(%rbp)
	movb	$95, -469(%rbp)
	movb	$124, -468(%rbp)
	movb	$32, -467(%rbp)
	movb	$32, -466(%rbp)
	movb	$32, -465(%rbp)
	movb	$32, -464(%rbp)
	movb	$124, -463(%rbp)
	movb	$95, -462(%rbp)
	movb	$124, -461(%rbp)
	movb	$32, -460(%rbp)
	movb	$32, -459(%rbp)
	movb	$32, -458(%rbp)
	movb	$32, -457(%rbp)
	movb	$32, -456(%rbp)
	movb	$124, -455(%rbp)
	movb	$95, -454(%rbp)
	movb	$124, -453(%rbp)
	movb	$32, -452(%rbp)
	movb	$124, -451(%rbp)
	movb	$95, -450(%rbp)
	movb	$95, -449(%rbp)
	movb	$95, -448(%rbp)
	movb	$95, -447(%rbp)
	movb	$95, -446(%rbp)
	movb	$47, -445(%rbp)
	movb	$95, -444(%rbp)
	movb	$47, -443(%rbp)
	movb	$32, -442(%rbp)
	movb	$32, -441(%rbp)
	movb	$32, -440(%rbp)
	movb	$92, -439(%rbp)
	movb	$95, -438(%rbp)
	movb	$92, -437(%rbp)
	movb	$95, -436(%rbp)
	movb	$95, -435(%rbp)
	movb	$95, -434(%rbp)
	movb	$95, -433(%rbp)
	movb	$124, -432(%rbp)
	movb	$95, -431(%rbp)
	movb	$124, -430(%rbp)
	movb	$32, -429(%rbp)
	movb	$124, -428(%rbp)
	movb	$95, -427(%rbp)
	movb	$124, -426(%rbp)
	movb	$95, -425(%rbp)
	movb	$95, -424(%rbp)
	movb	$95, -423(%rbp)
	movb	$95, -422(%rbp)
	movb	$95, -421(%rbp)
	movb	$124, -420(%rbp)
	movb	$95, -419(%rbp)
	movb	$124, -418(%rbp)
	movb	$32, -417(%rbp)
	movb	$92, -416(%rbp)
	movb	$95, -415(%rbp)
	movb	$92, -414(%rbp)
	movb	$95, -413(%rbp)
	movb	$95, -412(%rbp)
	movb	$95, -411(%rbp)
	movb	$95, -410(%rbp)
	movb	$47, -409(%rbp)
	movb	$32, -408(%rbp)
	movb	$32, -407(%rbp)
	movb	$124, -406(%rbp)
	movb	$95, -405(%rbp)
	movb	$95, -404(%rbp)
	movb	$95, -403(%rbp)
	movb	$95, -402(%rbp)
	movb	$47, -401(%rbp)
	movb	$95, -400(%rbp)
	movb	$47, -399(%rbp)
	movb	$32, -398(%rbp)
	movb	$32, -397(%rbp)
	movb	$32, -396(%rbp)
	movb	$92, -395(%rbp)
	movb	$95, -394(%rbp)
	movb	$92, -393(%rbp)
	movb	$95, -392(%rbp)
	movb	$124, -391(%rbp)
	movb	$32, -390(%rbp)
	movb	$32, -389(%rbp)
	movl	$50, -20(%rbp)
	movl	$0, -4(%rbp)
	movl	-20(%rbp), %eax
	subl	$1, %eax
	movl	%eax, -8(%rbp)
	jmp	.L4
.L10:
	movl	$0, -12(%rbp)
	jmp	.L5
.L8:
	movl	-4(%rbp), %eax
	movl	%eax, -16(%rbp)
	jmp	.L6
.L7:
	movl	-16(%rbp), %eax
	cltq
	movl	-12(%rbp), %edx
	movslq	%edx, %rdx
	imulq	$500, %rdx, %rdx
	addq	%rbp, %rdx
	addq	%rdx, %rax
	subq	$2528, %rax
	movzbl	(%rax), %eax
	movsbl	%al, %eax
	movl	%eax, %edi
	call	putchar@PLT
	addl	$1, -16(%rbp)
.L6:
	movl	-16(%rbp), %eax
	cmpl	-8(%rbp), %eax
	jle	.L7
	movl	$10, %edi
	call	putchar@PLT
	addl	$1, -12(%rbp)
.L5:
	cmpl	$4, -12(%rbp)
	jle	.L8
	movl	$200, %edi
	call	msleep
	movl	-8(%rbp), %eax
	addl	$1, %eax
	cltq
	movzbl	-2528(%rbp,%rax), %eax
	testb	%al, %al
	jne	.L9
	call	getchar@PLT
.L9:
	leaq	.LC0(%rip), %rdi
	movl	$0, %eax
	call	printf@PLT
	addl	$1, -4(%rbp)
	addl	$1, -8(%rbp)
.L4:
	movl	-8(%rbp), %eax
	cltq
	movzbl	-2528(%rbp,%rax), %eax
	testb	%al, %al
	jne	.L10
	movl	$0, %eax
	leave
	.cfi_def_cfa 7, 8
	ret
	.cfi_endproc
